((dp0
S'56'
p1
I15
sS'37'
p2
I10
sS'50'
p3
I19
sS'60'
p4
I11
sS'53'
p5
I12
sS'52'
p6
I21
sS'25'
p7
I8
sS'26'
p8
I8
sS'27'
p9
I13
sS'48'
p10
I17
sS'49'
p11
I17
sS'46'
p12
I15
sS'47'
p13
I14
sS'44'
p14
I18
sS'45'
p15
I19
sS'42'
p16
I12
sS'43'
p17
I13
sS'40'
p18
I11
sS'41'
p19
I13
sS'28'
p20
I14
sS'29'
p21
I11
sS'39'
p22
I8
sS'38'
p23
I6
sS'59'
p24
I19
sS'58'
p25
I15
sS'55'
p26
I21
sS'54'
p27
I27
sS'57'
p28
I13
sS'30'
p29
I10
sS'51'
p30
I13
sS'36'
p31
I19
sS'35'
p32
I17
sS'34'
p33
I10
sS'33'
p34
I8
sS'32'
p35
I7
sS'31'
p36
I16
s(lp37
g7
ag8
ag9
ag20
ag21
ag29
ag36
ag35
ag34
ag33
ag32
ag31
ag2
ag23
ag22
ag18
ag19
ag16
ag17
ag14
ag15
ag12
ag13
ag10
ag11
ag3
ag30
ag6
ag5
ag27
ag26
ag1
ag28
ag25
ag24
ag4
atp38
.